(lp0
S'poi'
p1
aS'total_payments'
p2
aS'salary'
p3
aS'bonus'
p4
aS'exercised_stock_options'
p5
aS'total_stock_value'
p6
aS'deferred_income'
p7
aS'long_term_incentive'
p8
aS'restricted_stock'
p9
ag2
aS'to_poi_message_fraction'
p10
aS'sum_salary_bonus'
p11
a.